target datalayout = "e-m:e-p270:32:32-p271:32:32-p272:64:64-i64:64-i128:128-f80:128-n8:16:32:64-S128"
target triple = "x86_64-pc-linux-gnu"

%class.anon.12 = type { i8 }

@.str.13 = private unnamed_addr constant [16 x i8] c"model_evaluator\00", align 1
@.str.73 = private unnamed_addr constant [5 x i8] c"true\00", align 1
@.str.77 = private unnamed_addr constant [11 x i8] c"max_memory\00", align 1
@.str.78 = private unnamed_addr constant [38 x i8] c"maximum amount of memory in megabytes\00", align 1
@.str.79 = private unnamed_addr constant [11 x i8] c"4294967295\00", align 1
@.str.82 = private unnamed_addr constant [6 x i8] c"false\00", align 1
@.str.158 = private unnamed_addr constant [10 x i8] c"max_steps\00", align 1
@.str.159 = private unnamed_addr constant [24 x i8] c"maximum number of steps\00", align 1
@.str.160 = private unnamed_addr constant [11 x i8] c"completion\00", align 1
@.str.161 = private unnamed_addr constant [129 x i8] c"assigns an interptetation to symbols that do not have one in the current model, when evaluating expressions in the current model\00", align 1
@.str.162 = private unnamed_addr constant [17 x i8] c"array_equalities\00", align 1
@.str.163 = private unnamed_addr constant [26 x i8] c"evaluate array equalities\00", align 1
@.str.164 = private unnamed_addr constant [16 x i8] c"array_as_stores\00", align 1
@.str.165 = private unnamed_addr constant [32 x i8] c"return array as a set of stores\00", align 1

; Function Attrs: mustprogress uwtable
define linkonce_odr hidden void @_ZN22model_evaluator_params20collect_param_descrsER12param_descrs(ptr noundef nonnull align 8 dereferenceable(8) %0) #4 comdat align 2 {
  %2 = alloca ptr, align 8
  store ptr %0, ptr %2, align 8, !tbaa !7
  %3 = load ptr, ptr %2, align 8, !tbaa !7
  call void @_ZN12param_descrs6insertEPKc12cmd_arg_kindS1_S1_S1_(ptr noundef nonnull align 8 dereferenceable(8) %3, ptr noundef @.str.77, i32 noundef 0, ptr noundef @.str.78, ptr noundef @.str.79, ptr noundef @.str.13)
  %4 = load ptr, ptr %2, align 8, !tbaa !7
  call void @_ZN12param_descrs6insertEPKc12cmd_arg_kindS1_S1_S1_(ptr noundef nonnull align 8 dereferenceable(8) %4, ptr noundef @.str.158, i32 noundef 0, ptr noundef @.str.159, ptr noundef @.str.79, ptr noundef @.str.13)
  %5 = load ptr, ptr %2, align 8, !tbaa !7
  call void @_ZN12param_descrs6insertEPKc12cmd_arg_kindS1_S1_S1_(ptr noundef nonnull align 8 dereferenceable(8) %5, ptr noundef @.str.160, i32 noundef 1, ptr noundef @.str.161, ptr noundef @.str.82, ptr noundef @.str.13)
  %6 = load ptr, ptr %2, align 8, !tbaa !7
  call void @_ZN12param_descrs6insertEPKc12cmd_arg_kindS1_S1_S1_(ptr noundef nonnull align 8 dereferenceable(8) %6, ptr noundef @.str.162, i32 noundef 1, ptr noundef @.str.163, ptr noundef @.str.73, ptr noundef @.str.13)
  %7 = load ptr, ptr %2, align 8, !tbaa !7
  call void @_ZN12param_descrs6insertEPKc12cmd_arg_kindS1_S1_S1_(ptr noundef nonnull align 8 dereferenceable(8) %7, ptr noundef @.str.164, i32 noundef 1, ptr noundef @.str.165, ptr noundef @.str.73, ptr noundef @.str.13)
  ret void
}

; Function Attrs: inlinehint mustprogress uwtable
define internal noundef ptr @"_ZZ24gparams_register_modulesvENK3$_7clEv"(ptr noundef nonnull align 1 dereferenceable(1) %0) #8 align 2 {
  %2 = alloca ptr, align 8
  %3 = alloca ptr, align 8
  store ptr %0, ptr %2, align 8, !tbaa !3
  call void @llvm.lifetime.start.p0(i64 8, ptr %3) #3
  %4 = call noalias noundef ptr @_ZN6memory8allocateEm(i64 noundef 8)
  call void @_ZN12param_descrsC1Ev(ptr noundef nonnull align 8 dereferenceable(8) %4)
  store ptr %4, ptr %3, align 8, !tbaa !7
  %5 = load ptr, ptr %3, align 8, !tbaa !7
  call void @_ZN22model_evaluator_params20collect_param_descrsER12param_descrs(ptr noundef nonnull align 8 dereferenceable(8) %5)
  %6 = load ptr, ptr %3, align 8, !tbaa !7
  call void @llvm.lifetime.end.p0(i64 8, ptr %3) #3
  ret ptr %6
}

; Function Attrs: inlinehint mustprogress uwtable
define internal noundef ptr @"_ZZ24gparams_register_modulesvEN3$_78__invokeEv"() #8 align 2 {
  %1 = alloca %class.anon.12, align 1
  %2 = call noundef ptr @"_ZZ24gparams_register_modulesvENK3$_7clEv"(ptr noundef nonnull align 1 dereferenceable(1) %1)
  ret ptr %2
}