; Function Attrs: inlinehint mustprogress uwtable
define internal noundef ptr @"_ZZ24gparams_register_modulesvEN3$_78__invokeEv"() #5 align 2 {
  %1 = tail call noalias noundef ptr @_ZN6memory8allocateEm(i64 noundef 8)
  tail call void @_ZN12param_descrsC1Ev(ptr noundef nonnull align 8 dereferenceable(8) %1)
  tail call void @_ZN12param_descrs6insertEPKc12cmd_arg_kindS1_S1_S1_(ptr noundef nonnull align 8 dereferenceable(8) %1, ptr noundef nonnull @.str.77, i32 noundef 0, ptr noundef nonnull @.str.78, ptr noundef nonnull @.str.79, ptr noundef nonnull @.str.13)
  tail call void @_ZN12param_descrs6insertEPKc12cmd_arg_kindS1_S1_S1_(ptr noundef nonnull align 8 dereferenceable(8) %1, ptr noundef nonnull @.str.158, i32 noundef 0, ptr noundef nonnull @.str.159, ptr noundef nonnull @.str.79, ptr noundef nonnull @.str.13)
  tail call void @_ZN12param_descrs6insertEPKc12cmd_arg_kindS1_S1_S1_(ptr noundef nonnull align 8 dereferenceable(8) %1, ptr noundef nonnull @.str.160, i32 noundef 1, ptr noundef nonnull @.str.161, ptr noundef nonnull @.str.82, ptr noundef nonnull @.str.13)
  tail call void @_ZN12param_descrs6insertEPKc12cmd_arg_kindS1_S1_S1_(ptr noundef nonnull align 8 dereferenceable(8) %1, ptr noundef nonnull @.str.162, i32 noundef 1, ptr noundef nonnull @.str.163, ptr noundef nonnull @.str.73, ptr noundef nonnull @.str.13)
  tail call void @_ZN12param_descrs6insertEPKc12cmd_arg_kindS1_S1_S1_(ptr noundef nonnull align 8 dereferenceable(8) %1, ptr noundef nonnull @.str.164, i32 noundef 1, ptr noundef nonnull @.str.165, ptr noundef nonnull @.str.73, ptr noundef nonnull @.str.13)
  ret ptr %1
}